target datalayout = "e-m:e-p270:32:32-p271:32:32-p272:64:64-i64:64-i128:128-f80:128-n8:16:32:64-S128"
target triple = "x86_64-pc-linux-gnu"

%struct.avifScalingMode = type { %struct.avifFraction, %struct.avifFraction }
%struct.avifFraction = type { i32, i32 }
%struct.avifEncoder = type { i32, i32, i32, i32, i64, i32, i32, i32, i32, i32, i32, i32, i32, i32, i32, i32, %struct.avifScalingMode, %struct.avifIOStats, %struct.avifDiagnostics, ptr, ptr, i32 }
%struct.avifIOStats = type { i64, i64 }
%struct.avifDiagnostics = type { [256 x i8] }
%struct.avifEncoderData = type { %struct.avifEncoderItemArray, %struct.avifEncoderFrameArray, i32, i32, i32, i32, %struct.avifEncoder, i32, i32, i32, i32, ptr, i16, i16, %struct.avifEncoderItemIdArray, i32, i32, i64, ptr, ptr }
%struct.avifEncoderItemArray = type { ptr, i32, i32, i32 }
%struct.avifEncoderFrameArray = type { ptr, i32, i32, i32 }
%struct.avifEncoderItemIdArray = type { ptr, i32, i32, i32 }

@noScaling = internal constant %struct.avifScalingMode { %struct.avifFraction { i32 1, i32 1 }, %struct.avifFraction { i32 1, i32 1 } }, align 4

; Function Attrs: nounwind uwtable
define hidden void @avifEncoderDestroy(ptr noundef %0) #0 {
  %2 = alloca ptr, align 8
  store ptr %0, ptr %2, align 8
  %3 = load ptr, ptr %2, align 8
  %4 = getelementptr inbounds nuw %struct.avifEncoder, ptr %3, i32 0, i32 20
  %5 = load ptr, ptr %4, align 8
  %6 = icmp ne ptr %5, null
  br i1 %6, label %7, label %11

7:                                                ; preds = %1
  %8 = load ptr, ptr %2, align 8
  %9 = getelementptr inbounds nuw %struct.avifEncoder, ptr %8, i32 0, i32 20
  %10 = load ptr, ptr %9, align 8
  call void @avifCodecSpecificOptionsDestroy(ptr noundef %10)
  br label %11

11:                                               ; preds = %7, %1
  %12 = load ptr, ptr %2, align 8
  %13 = getelementptr inbounds nuw %struct.avifEncoder, ptr %12, i32 0, i32 19
  %14 = load ptr, ptr %13, align 8
  %15 = icmp ne ptr %14, null
  br i1 %15, label %16, label %20

16:                                               ; preds = %11
  %17 = load ptr, ptr %2, align 8
  %18 = getelementptr inbounds nuw %struct.avifEncoder, ptr %17, i32 0, i32 19
  %19 = load ptr, ptr %18, align 8
  call void @avifEncoderDataDestroy(ptr noundef %19)
  br label %20

20:                                               ; preds = %16, %11
  %21 = load ptr, ptr %2, align 8
  call void @avifFree(ptr noundef %21)
  ret void
}

; Function Attrs: nounwind uwtable
define internal ptr @avifEncoderDataCreate() #0 {
  %1 = alloca ptr, align 8
  %2 = alloca ptr, align 8
  %3 = call ptr @avifAlloc(i64 noundef 536)
  store ptr %3, ptr %2, align 8
  %4 = load ptr, ptr %2, align 8
  %5 = icmp ne ptr %4, null
  br i1 %5, label %7, label %6

6:                                                ; preds = %0
  store ptr null, ptr %1, align 8
  br label %39

7:                                                ; preds = %0
  %8 = load ptr, ptr %2, align 8
  call void @llvm.memset.p0.i64(ptr align 8 %8, i8 0, i64 536, i1 false)
  %9 = call ptr @avifImageCreateEmpty()
  %10 = load ptr, ptr %2, align 8
  %11 = getelementptr inbounds nuw %struct.avifEncoderData, ptr %10, i32 0, i32 11
  store ptr %9, ptr %11, align 8
  %12 = load ptr, ptr %2, align 8
  %13 = getelementptr inbounds nuw %struct.avifEncoderData, ptr %12, i32 0, i32 11
  %14 = load ptr, ptr %13, align 8
  %15 = icmp ne ptr %14, null
  br i1 %15, label %17, label %16

16:                                               ; preds = %7
  br label %37

17:                                               ; preds = %7
  %18 = load ptr, ptr %2, align 8
  %19 = getelementptr inbounds nuw %struct.avifEncoderData, ptr %18, i32 0, i32 0
  %20 = call i32 @avifArrayCreate(ptr noundef %19, i32 noundef 248, i32 noundef 8)
  %21 = icmp ne i32 %20, 0
  br i1 %21, label %23, label %22

22:                                               ; preds = %17
  br label %37

23:                                               ; preds = %17
  %24 = load ptr, ptr %2, align 8
  %25 = getelementptr inbounds nuw %struct.avifEncoderData, ptr %24, i32 0, i32 1
  %26 = call i32 @avifArrayCreate(ptr noundef %25, i32 noundef 8, i32 noundef 1)
  %27 = icmp ne i32 %26, 0
  br i1 %27, label %29, label %28

28:                                               ; preds = %23
  br label %37

29:                                               ; preds = %23
  %30 = load ptr, ptr %2, align 8
  %31 = getelementptr inbounds nuw %struct.avifEncoderData, ptr %30, i32 0, i32 14
  %32 = call i32 @avifArrayCreate(ptr noundef %31, i32 noundef 2, i32 noundef 1)
  %33 = icmp ne i32 %32, 0
  br i1 %33, label %35, label %34

34:                                               ; preds = %29
  br label %37

35:                                               ; preds = %29
  %36 = load ptr, ptr %2, align 8
  store ptr %36, ptr %1, align 8
  br label %39

37:                                               ; preds = %34, %28, %22, %16
  %38 = load ptr, ptr %2, align 8
  call void @avifEncoderDataDestroy(ptr noundef %38)
  store ptr null, ptr %1, align 8
  br label %39

39:                                               ; preds = %37, %35, %6
  %40 = load ptr, ptr %1, align 8
  ret ptr %40
}

; Function Attrs: nounwind uwtable
define hidden ptr @avifEncoderCreate() #0 {
  %1 = alloca ptr, align 8
  %2 = alloca ptr, align 8
  %3 = call ptr @avifAlloc(i64 noundef 384)
  store ptr %3, ptr %2, align 8
  %4 = load ptr, ptr %2, align 8
  %5 = icmp ne ptr %4, null
  br i1 %5, label %7, label %6

6:                                                ; preds = %0
  store ptr null, ptr %1, align 8
  br label %62

7:                                                ; preds = %0
  %8 = load ptr, ptr %2, align 8
  call void @llvm.memset.p0.i64(ptr align 8 %8, i8 0, i64 384, i1 false)
  %9 = load ptr, ptr %2, align 8
  %10 = getelementptr inbounds nuw %struct.avifEncoder, ptr %9, i32 0, i32 0
  store i32 0, ptr %10, align 8
  %11 = load ptr, ptr %2, align 8
  %12 = getelementptr inbounds nuw %struct.avifEncoder, ptr %11, i32 0, i32 1
  store i32 1, ptr %12, align 4
  %13 = load ptr, ptr %2, align 8
  %14 = getelementptr inbounds nuw %struct.avifEncoder, ptr %13, i32 0, i32 2
  store i32 -1, ptr %14, align 8
  %15 = load ptr, ptr %2, align 8
  %16 = getelementptr inbounds nuw %struct.avifEncoder, ptr %15, i32 0, i32 3
  store i32 0, ptr %16, align 4
  %17 = load ptr, ptr %2, align 8
  %18 = getelementptr inbounds nuw %struct.avifEncoder, ptr %17, i32 0, i32 4
  store i64 1, ptr %18, align 8
  %19 = load ptr, ptr %2, align 8
  %20 = getelementptr inbounds nuw %struct.avifEncoder, ptr %19, i32 0, i32 5
  store i32 -1, ptr %20, align 8
  %21 = load ptr, ptr %2, align 8
  %22 = getelementptr inbounds nuw %struct.avifEncoder, ptr %21, i32 0, i32 7
  store i32 -1, ptr %22, align 8
  %23 = load ptr, ptr %2, align 8
  %24 = getelementptr inbounds nuw %struct.avifEncoder, ptr %23, i32 0, i32 8
  store i32 -1, ptr %24, align 4
  %25 = load ptr, ptr %2, align 8
  %26 = getelementptr inbounds nuw %struct.avifEncoder, ptr %25, i32 0, i32 9
  store i32 0, ptr %26, align 8
  %27 = load ptr, ptr %2, align 8
  %28 = getelementptr inbounds nuw %struct.avifEncoder, ptr %27, i32 0, i32 10
  store i32 63, ptr %28, align 4
  %29 = load ptr, ptr %2, align 8
  %30 = getelementptr inbounds nuw %struct.avifEncoder, ptr %29, i32 0, i32 11
  store i32 0, ptr %30, align 8
  %31 = load ptr, ptr %2, align 8
  %32 = getelementptr inbounds nuw %struct.avifEncoder, ptr %31, i32 0, i32 12
  store i32 63, ptr %32, align 4
  %33 = load ptr, ptr %2, align 8
  %34 = getelementptr inbounds nuw %struct.avifEncoder, ptr %33, i32 0, i32 13
  store i32 0, ptr %34, align 8
  %35 = load ptr, ptr %2, align 8
  %36 = getelementptr inbounds nuw %struct.avifEncoder, ptr %35, i32 0, i32 14
  store i32 0, ptr %36, align 4
  %37 = load ptr, ptr %2, align 8
  %38 = getelementptr inbounds nuw %struct.avifEncoder, ptr %37, i32 0, i32 15
  store i32 0, ptr %38, align 8
  %39 = load ptr, ptr %2, align 8
  %40 = getelementptr inbounds nuw %struct.avifEncoder, ptr %39, i32 0, i32 16
  call void @llvm.memcpy.p0.p0.i64(ptr align 4 %40, ptr align 4 @noScaling, i64 16, i1 false)
  %41 = call ptr @avifEncoderDataCreate()
  %42 = load ptr, ptr %2, align 8
  %43 = getelementptr inbounds nuw %struct.avifEncoder, ptr %42, i32 0, i32 19
  store ptr %41, ptr %43, align 8
  %44 = call ptr @avifCodecSpecificOptionsCreate()
  %45 = load ptr, ptr %2, align 8
  %46 = getelementptr inbounds nuw %struct.avifEncoder, ptr %45, i32 0, i32 20
  store ptr %44, ptr %46, align 8
  %47 = load ptr, ptr %2, align 8
  %48 = getelementptr inbounds nuw %struct.avifEncoder, ptr %47, i32 0, i32 19
  %49 = load ptr, ptr %48, align 8
  %50 = icmp ne ptr %49, null
  br i1 %50, label %51, label %56

51:                                               ; preds = %7
  %52 = load ptr, ptr %2, align 8
  %53 = getelementptr inbounds nuw %struct.avifEncoder, ptr %52, i32 0, i32 20
  %54 = load ptr, ptr %53, align 8
  %55 = icmp ne ptr %54, null
  br i1 %55, label %58, label %56

56:                                               ; preds = %51, %7
  %57 = load ptr, ptr %2, align 8
  call void @avifEncoderDestroy(ptr noundef %57)
  store ptr null, ptr %1, align 8
  br label %62

58:                                               ; preds = %51
  %59 = load ptr, ptr %2, align 8
  %60 = getelementptr inbounds nuw %struct.avifEncoder, ptr %59, i32 0, i32 21
  store i32 0, ptr %60, align 8
  %61 = load ptr, ptr %2, align 8
  store ptr %61, ptr %1, align 8
  br label %62

62:                                               ; preds = %58, %56, %6
  %63 = load ptr, ptr %1, align 8
  ret ptr %63
}