; Function Attrs: nounwind uwtable
define hidden ptr @avifEncoderCreate() local_unnamed_addr #1 {
  %1 = tail call ptr @avifAlloc(i64 noundef 384) #13
  %.not = icmp eq ptr %1, null
  br i1 %.not, label %37, label %2

2:                                                ; preds = %0
  %3 = getelementptr inbounds nuw i8, ptr %1, i64 4
  tail call void @llvm.memset.p0.i64(ptr noundef nonnull align 8 dereferenceable(384) %1, i8 0, i64 384, i1 false)
  store i32 1, ptr %3, align 4
  %4 = getelementptr inbounds nuw i8, ptr %1, i64 8
  store i32 -1, ptr %4, align 8
  %5 = getelementptr inbounds nuw i8, ptr %1, i64 16
  store i64 1, ptr %5, align 8
  %6 = getelementptr inbounds nuw i8, ptr %1, i64 24
  store i32 -1, ptr %6, align 8
  %7 = getelementptr inbounds nuw i8, ptr %1, i64 32
  store i32 -1, ptr %7, align 8
  %8 = getelementptr inbounds nuw i8, ptr %1, i64 36
  store i32 -1, ptr %8, align 4
  %9 = getelementptr inbounds nuw i8, ptr %1, i64 44
  store i32 63, ptr %9, align 4
  %10 = getelementptr inbounds nuw i8, ptr %1, i64 52
  store i32 63, ptr %10, align 4
  %11 = getelementptr inbounds nuw i8, ptr %1, i64 60
  store i32 0, ptr %11, align 4
  %12 = getelementptr inbounds nuw i8, ptr %1, i64 68
  tail call void @llvm.memcpy.p0.p0.i64(ptr noundef nonnull align 4 dereferenceable(16) %12, ptr noundef nonnull align 4 dereferenceable(16) @noScaling, i64 16, i1 false)
  %13 = tail call ptr @avifAlloc(i64 noundef 536) #13
  %.not.i = icmp eq ptr %13, null
  br i1 %.not.i, label %avifEncoderDataCreate.exit, label %14

14:                                               ; preds = %2
  tail call void @llvm.memset.p0.i64(ptr noundef nonnull align 8 dereferenceable(536) %13, i8 0, i64 536, i1 false)
  %15 = tail call ptr @avifImageCreateEmpty() #13
  %16 = getelementptr inbounds nuw i8, ptr %13, i64 464
  store ptr %15, ptr %16, align 8
  %.not11.i = icmp eq ptr %15, null
  br i1 %.not11.i, label %25, label %17

17:                                               ; preds = %14
  %18 = tail call i32 @avifArrayCreate(ptr noundef nonnull %13, i32 noundef 248, i32 noundef 8) #13
  %.not12.i = icmp eq i32 %18, 0
  br i1 %.not12.i, label %25, label %19

19:                                               ; preds = %17
  %20 = getelementptr inbounds nuw i8, ptr %13, i64 24
  %21 = tail call i32 @avifArrayCreate(ptr noundef nonnull %20, i32 noundef 8, i32 noundef 1) #13
  %.not13.i = icmp eq i32 %21, 0
  br i1 %.not13.i, label %25, label %22

22:                                               ; preds = %19
  %23 = getelementptr inbounds nuw i8, ptr %13, i64 480
  %24 = tail call i32 @avifArrayCreate(ptr noundef nonnull %23, i32 noundef 2, i32 noundef 1) #13
  %.not14.i = icmp eq i32 %24, 0
  br i1 %.not14.i, label %25, label %avifEncoderDataCreate.exit

25:                                               ; preds = %22, %19, %17, %14
  tail call fastcc void @avifEncoderDataDestroy(ptr noundef nonnull %13)
  br label %avifEncoderDataCreate.exit

avifEncoderDataCreate.exit:                       ; preds = %2, %22, %25
  %.0.i = phi ptr [ null, %25 ], [ null, %2 ], [ %13, %22 ]
  %26 = getelementptr inbounds nuw i8, ptr %1, i64 360
  store ptr %.0.i, ptr %26, align 8
  %27 = tail call ptr @avifCodecSpecificOptionsCreate() #13
  %28 = getelementptr inbounds nuw i8, ptr %1, i64 368
  store ptr %27, ptr %28, align 8
  %29 = load ptr, ptr %26, align 8
  %.not27 = icmp eq ptr %29, null
  %.not28 = icmp eq ptr %27, null
  %or.cond = select i1 %.not27, i1 true, i1 %.not28
  br i1 %or.cond, label %30, label %35

30:                                               ; preds = %avifEncoderDataCreate.exit
  br i1 %.not28, label %32, label %31

31:                                               ; preds = %30
  tail call void @avifCodecSpecificOptionsDestroy(ptr noundef nonnull %27) #13
  %.pr = load ptr, ptr %26, align 8
  br label %32

32:                                               ; preds = %31, %30
  %33 = phi ptr [ %.pr, %31 ], [ %29, %30 ]
  %.not6.i = icmp eq ptr %33, null
  br i1 %.not6.i, label %avifEncoderDestroy.exit, label %34

34:                                               ; preds = %32
  tail call fastcc void @avifEncoderDataDestroy(ptr noundef nonnull %33)
  br label %avifEncoderDestroy.exit

avifEncoderDestroy.exit:                          ; preds = %32, %34
  tail call void @avifFree(ptr noundef nonnull %1) #13
  br label %37

35:                                               ; preds = %avifEncoderDataCreate.exit
  %36 = getelementptr inbounds nuw i8, ptr %1, i64 376
  store i32 0, ptr %36, align 8
  br label %37

37:                                               ; preds = %0, %35, %avifEncoderDestroy.exit
  %.0 = phi ptr [ %1, %35 ], [ null, %avifEncoderDestroy.exit ], [ null, %0 ]
  ret ptr %.0
}